target datalayout = "e-m:e-p270:32:32-p271:32:32-p272:64:64-i64:64-i128:128-f80:128-n8:16:32:64-S128"
target triple = "x86_64-pc-linux-gnu"

@_ZZN19OpenColorIO_v2_5dev9APPLE_LOG27GenerateAppleLogToLinearOpsERNS_10OpRcPtrVecEE3P_t = internal global double 0.000000e+00, align 8

; Function Attrs: inlinehint mustprogress nounwind uwtable
define internal noundef float @"_ZZN19OpenColorIO_v2_5dev9APPLE_LOG27GenerateAppleLogToLinearOpsERNS_10OpRcPtrVecEENK3$_0clEd"(ptr noundef nonnull align 1 dereferenceable(1) %0, double noundef %1) #9 align 2 {
  %3 = alloca float, align 4
  %4 = alloca ptr, align 8
  %5 = alloca double, align 8
  store ptr %0, ptr %4, align 8, !tbaa !15
  store double %1, ptr %5, align 8, !tbaa !11
  %6 = load double, ptr %5, align 8, !tbaa !11
  %7 = load double, ptr @_ZZN19OpenColorIO_v2_5dev9APPLE_LOG27GenerateAppleLogToLinearOpsERNS_10OpRcPtrVecEE3P_t, align 8, !tbaa !11
  %8 = fcmp oge double %6, %7
  br i1 %8, label %9, label %16

9:                                                ; preds = %2
  %10 = load double, ptr %5, align 8, !tbaa !11
  %11 = fsub double %10, 0x3FE6301520F974CC
  %12 = fdiv double %11, 0x3FB5E3A454B38B88
  %13 = call double @pow(double noundef 2.000000e+00, double noundef %12) #3, !tbaa !9
  %14 = fsub double %13, 0x3F83BE68B0EE74E8
  %15 = fptrunc double %14 to float
  store float %15, ptr %3, align 4
  br label %30

16:                                               ; preds = %2
  %17 = load double, ptr %5, align 8, !tbaa !11
  %18 = load double, ptr @_ZZN19OpenColorIO_v2_5dev9APPLE_LOG27GenerateAppleLogToLinearOpsERNS_10OpRcPtrVecEE3P_t, align 8, !tbaa !11
  %19 = fcmp olt double %17, %18
  br i1 %19, label %20, label %29

20:                                               ; preds = %16
  %21 = load double, ptr %5, align 8, !tbaa !11
  %22 = fcmp oge double %21, 0.000000e+00
  br i1 %22, label %23, label %29

23:                                               ; preds = %20
  %24 = load double, ptr %5, align 8, !tbaa !11
  %25 = fdiv double %24, 0x4047A4C0190A3D1B
  %26 = call double @sqrt(double noundef %25) #3, !tbaa !9
  %27 = fadd double %26, 0xBFACE1E3097A2738
  %28 = fptrunc double %27 to float
  store float %28, ptr %3, align 4
  br label %30

29:                                               ; preds = %20, %16
  store float 0xBFACE1E300000000, ptr %3, align 4
  br label %30

30:                                               ; preds = %29, %23, %9
  %31 = load float, ptr %3, align 4
  ret float %31
}

; Function Attrs: mustprogress nounwind uwtable
define linkonce_odr hidden noundef ptr @_ZNKSt9_Any_data9_M_accessEv(ptr noundef nonnull align 8 dereferenceable(16) %0) #6 comdat align 2 {
  %2 = alloca ptr, align 8
  store ptr %0, ptr %2, align 8, !tbaa !29
  %3 = load ptr, ptr %2, align 8
  %4 = getelementptr inbounds [16 x i8], ptr %3, i64 0, i64 0
  ret ptr %4
}

; Function Attrs: mustprogress uwtable
define internal noundef float @"_ZSt13__invoke_implIfRZN19OpenColorIO_v2_5dev9APPLE_LOG27GenerateAppleLogToLinearOpsERNS0_10OpRcPtrVecEE3$_0JdEET_St14__invoke_otherOT0_DpOT1_"(ptr noundef nonnull align 1 dereferenceable(1) %0, ptr noundef nonnull align 8 dereferenceable(8) %1) #4 {
  %3 = alloca ptr, align 8
  %4 = alloca ptr, align 8
  store ptr %0, ptr %3, align 8, !tbaa !15
  store ptr %1, ptr %4, align 8, !tbaa !31
  %5 = load ptr, ptr %3, align 8, !tbaa !15
  %6 = load ptr, ptr %4, align 8, !tbaa !31
  %7 = load double, ptr %6, align 8, !tbaa !11
  %8 = call noundef float @"_ZZN19OpenColorIO_v2_5dev9APPLE_LOG27GenerateAppleLogToLinearOpsERNS_10OpRcPtrVecEENK3$_0clEd"(ptr noundef nonnull align 1 dereferenceable(1) %5, double noundef %7)
  ret float %8
}

; Function Attrs: mustprogress nounwind uwtable
define internal noundef nonnull align 1 dereferenceable(1) ptr @"_ZNKSt9_Any_data9_M_accessIZN19OpenColorIO_v2_5dev9APPLE_LOG27GenerateAppleLogToLinearOpsERNS1_10OpRcPtrVecEE3$_0EERKT_v"(ptr noundef nonnull align 8 dereferenceable(16) %0) #6 align 2 {
  %2 = alloca ptr, align 8
  store ptr %0, ptr %2, align 8, !tbaa !29
  %3 = load ptr, ptr %2, align 8
  %4 = call noundef ptr @_ZNKSt9_Any_data9_M_accessEv(ptr noundef nonnull align 8 dereferenceable(16) %3) #3
  ret ptr %4
}

; Function Attrs: mustprogress uwtable
define internal noundef float @"_ZSt10__invoke_rIfRZN19OpenColorIO_v2_5dev9APPLE_LOG27GenerateAppleLogToLinearOpsERNS0_10OpRcPtrVecEE3$_0JdEENSt9enable_ifIXsr6__and_ISt6__not_ISt7is_voidIT_EESt14is_convertibleINSt15__invoke_resultIT0_JDpT1_EE4typeES9_EEE5valueES9_E4typeEOSE_DpOSF_"(ptr noundef nonnull align 1 dereferenceable(1) %0, ptr noundef nonnull align 8 dereferenceable(8) %1) #4 {
  %3 = alloca ptr, align 8
  %4 = alloca ptr, align 8
  store ptr %0, ptr %3, align 8, !tbaa !15
  store ptr %1, ptr %4, align 8, !tbaa !31
  %5 = load ptr, ptr %3, align 8, !tbaa !15
  %6 = load ptr, ptr %4, align 8, !tbaa !31
  %7 = call noundef float @"_ZSt13__invoke_implIfRZN19OpenColorIO_v2_5dev9APPLE_LOG27GenerateAppleLogToLinearOpsERNS0_10OpRcPtrVecEE3$_0JdEET_St14__invoke_otherOT0_DpOT1_"(ptr noundef nonnull align 1 dereferenceable(1) %5, ptr noundef nonnull align 8 dereferenceable(8) %6)
  ret float %7
}

; Function Attrs: mustprogress nounwind uwtable
define internal noundef ptr @"_ZNSt14_Function_base13_Base_managerIZN19OpenColorIO_v2_5dev9APPLE_LOG27GenerateAppleLogToLinearOpsERNS1_10OpRcPtrVecEE3$_0E14_M_get_pointerERKSt9_Any_data"(ptr noundef nonnull align 8 dereferenceable(16) %0) #6 align 2 {
  %2 = alloca ptr, align 8
  %3 = alloca ptr, align 8
  store ptr %0, ptr %2, align 8, !tbaa !29
  call void @llvm.lifetime.start.p0(i64 8, ptr %3) #3
  %4 = load ptr, ptr %2, align 8, !tbaa !29
  %5 = call noundef nonnull align 1 dereferenceable(1) ptr @"_ZNKSt9_Any_data9_M_accessIZN19OpenColorIO_v2_5dev9APPLE_LOG27GenerateAppleLogToLinearOpsERNS1_10OpRcPtrVecEE3$_0EERKT_v"(ptr noundef nonnull align 8 dereferenceable(16) %4) #3
  store ptr %5, ptr %3, align 8, !tbaa !15
  %6 = load ptr, ptr %3, align 8, !tbaa !15
  call void @llvm.lifetime.end.p0(i64 8, ptr %3) #3
  ret ptr %6
}

; Function Attrs: mustprogress uwtable
define internal noundef float @"_ZNSt17_Function_handlerIFfdEZN19OpenColorIO_v2_5dev9APPLE_LOG27GenerateAppleLogToLinearOpsERNS1_10OpRcPtrVecEE3$_0E9_M_invokeERKSt9_Any_dataOd"(ptr noundef nonnull align 8 dereferenceable(16) %0, ptr noundef nonnull align 8 dereferenceable(8) %1) #4 align 2 {
  %3 = alloca ptr, align 8
  %4 = alloca ptr, align 8
  store ptr %0, ptr %3, align 8, !tbaa !29
  store ptr %1, ptr %4, align 8, !tbaa !31
  %5 = load ptr, ptr %3, align 8, !tbaa !29
  %6 = call noundef ptr @"_ZNSt14_Function_base13_Base_managerIZN19OpenColorIO_v2_5dev9APPLE_LOG27GenerateAppleLogToLinearOpsERNS1_10OpRcPtrVecEE3$_0E14_M_get_pointerERKSt9_Any_data"(ptr noundef nonnull align 8 dereferenceable(16) %5) #3
  %7 = load ptr, ptr %4, align 8, !tbaa !31
  %8 = call noundef float @"_ZSt10__invoke_rIfRZN19OpenColorIO_v2_5dev9APPLE_LOG27GenerateAppleLogToLinearOpsERNS0_10OpRcPtrVecEE3$_0JdEENSt9enable_ifIXsr6__and_ISt6__not_ISt7is_voidIT_EESt14is_convertibleINSt15__invoke_resultIT0_JDpT1_EE4typeES9_EEE5valueES9_E4typeEOSE_DpOSF_"(ptr noundef nonnull align 1 dereferenceable(1) %6, ptr noundef nonnull align 8 dereferenceable(8) %7)
  ret float %8
}