; Function Attrs: mustprogress nounwind uwtable
define internal noundef float @"_ZNSt17_Function_handlerIFfdEZN19OpenColorIO_v2_5dev9APPLE_LOG27GenerateAppleLogToLinearOpsERNS1_10OpRcPtrVecEE3$_0E9_M_invokeERKSt9_Any_dataOd"(ptr nonnull readnone align 8 captures(none) %0, ptr noundef nonnull readonly align 8 captures(none) dereferenceable(8) %1) #5 align 2 {
  %.val = load double, ptr %1, align 8, !tbaa !4
  %3 = load double, ptr @_ZZN19OpenColorIO_v2_5dev9APPLE_LOG27GenerateAppleLogToLinearOpsERNS_10OpRcPtrVecEE3P_t, align 8, !tbaa !4
  %4 = fcmp ult double %.val, %3
  br i1 %4, label %10, label %5

5:                                                ; preds = %2
  %6 = fadd double %.val, 0xBFE6301520F974CC
  %7 = fdiv double %6, 0x3FB5E3A454B38B88
  %exp2.i.i.i = tail call double @exp2(double %7) #13
  %8 = fadd double %exp2.i.i.i, 0xBF83BE68B0EE74E8
  %9 = fptrunc double %8 to float
  br label %"_ZSt10__invoke_rIfRZN19OpenColorIO_v2_5dev9APPLE_LOG27GenerateAppleLogToLinearOpsERNS0_10OpRcPtrVecEE3$_0JdEENSt9enable_ifIXsr6__and_ISt6__not_ISt7is_voidIT_EESt14is_convertibleINSt15__invoke_resultIT0_JDpT1_EE4typeES9_EEE5valueES9_E4typeEOSE_DpOSF_.exit"

10:                                               ; preds = %2
  %11 = fcmp olt double %.val, %3
  %12 = fcmp oge double %.val, 0.000000e+00
  %or.cond.i.i.i = and i1 %12, %11
  br i1 %or.cond.i.i.i, label %13, label %"_ZSt10__invoke_rIfRZN19OpenColorIO_v2_5dev9APPLE_LOG27GenerateAppleLogToLinearOpsERNS0_10OpRcPtrVecEE3$_0JdEENSt9enable_ifIXsr6__and_ISt6__not_ISt7is_voidIT_EESt14is_convertibleINSt15__invoke_resultIT0_JDpT1_EE4typeES9_EEE5valueES9_E4typeEOSE_DpOSF_.exit"

13:                                               ; preds = %10
  %14 = fdiv double %.val, 0x4047A4C0190A3D1B
  %15 = tail call double @sqrt(double noundef %14) #13, !tbaa !15
  %16 = fadd double %15, 0xBFACE1E3097A2738
  %17 = fptrunc double %16 to float
  br label %"_ZSt10__invoke_rIfRZN19OpenColorIO_v2_5dev9APPLE_LOG27GenerateAppleLogToLinearOpsERNS0_10OpRcPtrVecEE3$_0JdEENSt9enable_ifIXsr6__and_ISt6__not_ISt7is_voidIT_EESt14is_convertibleINSt15__invoke_resultIT0_JDpT1_EE4typeES9_EEE5valueES9_E4typeEOSE_DpOSF_.exit"

"_ZSt10__invoke_rIfRZN19OpenColorIO_v2_5dev9APPLE_LOG27GenerateAppleLogToLinearOpsERNS0_10OpRcPtrVecEE3$_0JdEENSt9enable_ifIXsr6__and_ISt6__not_ISt7is_voidIT_EESt14is_convertibleINSt15__invoke_resultIT0_JDpT1_EE4typeES9_EEE5valueES9_E4typeEOSE_DpOSF_.exit": ; preds = %5, %10, %13
  %.0.i.i.i = phi float [ %9, %5 ], [ %17, %13 ], [ 0xBFACE1E300000000, %10 ]
  ret float %.0.i.i.i
}